target datalayout = "e-m:e-p270:32:32-p271:32:32-p272:64:64-i64:64-i128:128-f80:128-n8:16:32:64-S128"
target triple = "x86_64-pc-linux-gnu"

%struct._object = type { %union.anon, ptr }
%union.anon = type { i64 }
%struct.PyFunctionObject = type { %struct._object, ptr, ptr, ptr, ptr, ptr, ptr, ptr, ptr, ptr, ptr, ptr, ptr, ptr, ptr, ptr, ptr, i32 }

@.str.3 = private unnamed_addr constant [32 x i8] c"../cpython/Objects/funcobject.c\00", align 1

; Function Attrs: inlinehint nounwind uwtable
define internal ptr @_Py_TYPE(ptr noundef %0) #2 {
  %2 = alloca ptr, align 8
  store ptr %0, ptr %2, align 8, !tbaa !96
  %3 = load ptr, ptr %2, align 8, !tbaa !96
  %4 = getelementptr inbounds nuw %struct._object, ptr %3, i32 0, i32 1
  %5 = load ptr, ptr %4, align 8, !tbaa !147
  ret ptr %5
}

; Function Attrs: inlinehint nounwind uwtable
define internal i32 @Py_IS_TYPE(ptr noundef %0, ptr noundef %1) #2 {
  %3 = alloca ptr, align 8
  %4 = alloca ptr, align 8
  store ptr %0, ptr %3, align 8, !tbaa !96
  store ptr %1, ptr %4, align 8, !tbaa !140
  %5 = load ptr, ptr %3, align 8, !tbaa !96
  %6 = call ptr @_Py_TYPE(ptr noundef %5)
  %7 = load ptr, ptr %4, align 8, !tbaa !140
  %8 = icmp eq ptr %6, %7
  %9 = zext i1 %8 to i32
  ret i32 %9
}

; Function Attrs: nounwind uwtable
define dso_local ptr @PyFunction_GetGlobals(ptr noundef %0) #0 {
  %2 = alloca ptr, align 8
  %3 = alloca ptr, align 8
  store ptr %0, ptr %3, align 8, !tbaa !96
  %4 = load ptr, ptr %3, align 8, !tbaa !96
  %5 = call i32 @Py_IS_TYPE(ptr noundef %4, ptr noundef @PyFunction_Type)
  %6 = icmp ne i32 %5, 0
  br i1 %6, label %8, label %7

7:                                                ; preds = %1
  call void @_PyErr_BadInternalCall(ptr noundef @.str.3, i32 noundef 422)
  store ptr null, ptr %2, align 8
  br label %12

8:                                                ; preds = %1
  %9 = load ptr, ptr %3, align 8, !tbaa !96
  %10 = getelementptr inbounds nuw %struct.PyFunctionObject, ptr %9, i32 0, i32 1
  %11 = load ptr, ptr %10, align 8, !tbaa !101
  store ptr %11, ptr %2, align 8
  br label %12

12:                                               ; preds = %8, %7
  %13 = load ptr, ptr %2, align 8
  ret ptr %13
}